target datalayout = "e-m:e-p270:32:32-p271:32:32-p272:64:64-i64:64-i128:128-f80:128-n8:16:32:64-S128"
target triple = "x86_64-pc-linux-gnu"

%"class.zmq::null_mechanism_t" = type <{ %"class.zmq::zap_client_t.base", i8, i8, i8, i8, i8, i8, [2 x i8], %"class.zmq::mechanism_base_t" }>
%"class.zmq::zap_client_t.base" = type { ptr, %"class.std::__cxx11::basic_string", %"class.std::__cxx11::basic_string" }
%"class.std::__cxx11::basic_string" = type { %"struct.std::__cxx11::basic_string<char>::_Alloc_hider", i64, %union.anon }
%"struct.std::__cxx11::basic_string<char>::_Alloc_hider" = type { ptr }
%union.anon = type { i64, [8 x i8] }
%"class.zmq::mechanism_base_t" = type { %"class.zmq::mechanism_t", ptr }
%"class.zmq::mechanism_t" = type { ptr, %"struct.zmq::options_t", %"class.std::map", %"class.std::map", %"struct.zmq::blob_t", %"struct.zmq::blob_t" }
%"struct.zmq::options_t" = type { i32, i32, i64, i8, [256 x i8], i32, i32, i32, i32, i32, i32, i32, i32, i8, %"struct.zmq::atomic_value_t", i32, i32, i32, i32, i32, i32, i64, i32, i32, i8, i32, i8, i8, i8, i8, i8, %"class.std::__cxx11::basic_string", %"class.std::__cxx11::basic_string", %"class.std::__cxx11::basic_string", i32, i32, i32, i32, %"class.std::vector", %"class.std::set", %"class.std::set", %"class.std::set.6", i32, i32, %"class.std::__cxx11::basic_string", %"class.std::__cxx11::basic_string", %"class.std::__cxx11::basic_string", [32 x i8], [32 x i8], [32 x i8], %"class.std::__cxx11::basic_string", %"class.std::__cxx11::basic_string", i32, i32, i8, i32, i8, i32, i8, i16, i32, i32, i32, %"class.std::__cxx11::basic_string", i8, i8, i8, i32, i32, i8, i32, %"class.std::map", i32, %"class.std::__cxx11::basic_string", %"class.std::__cxx11::basic_string", %"class.std::__cxx11::basic_string", %"class.std::__cxx11::basic_string", i8, %"class.std::vector.17", i8, %"class.std::vector.17", i8, %"class.std::vector.17", i8, i32, i8, i32, i32, i32, i32, i32, i8, i32 }
%"struct.zmq::atomic_value_t" = type { %"struct.std::atomic" }
%"struct.std::atomic" = type { %"struct.std::__atomic_base" }
%"struct.std::__atomic_base" = type { i32 }
%"class.std::vector" = type { %"struct.std::_Vector_base" }
%"struct.std::_Vector_base" = type { %"struct.std::_Vector_base<zmq::tcp_address_mask_t, std::allocator<zmq::tcp_address_mask_t>>::_Vector_impl" }
%"struct.std::_Vector_base<zmq::tcp_address_mask_t, std::allocator<zmq::tcp_address_mask_t>>::_Vector_impl" = type { %"struct.std::_Vector_base<zmq::tcp_address_mask_t, std::allocator<zmq::tcp_address_mask_t>>::_Vector_impl_data" }
%"struct.std::_Vector_base<zmq::tcp_address_mask_t, std::allocator<zmq::tcp_address_mask_t>>::_Vector_impl_data" = type { ptr, ptr, ptr }
%"class.std::set" = type { %"class.std::_Rb_tree" }
%"class.std::_Rb_tree" = type { %"struct.std::_Rb_tree<unsigned int, unsigned int, std::_Identity<unsigned int>, std::less<unsigned int>>::_Rb_tree_impl" }
%"struct.std::_Rb_tree<unsigned int, unsigned int, std::_Identity<unsigned int>, std::less<unsigned int>>::_Rb_tree_impl" = type { [8 x i8], %"struct.std::_Rb_tree_header" }
%"struct.std::_Rb_tree_header" = type { %"struct.std::_Rb_tree_node_base", i64 }
%"struct.std::_Rb_tree_node_base" = type { i32, ptr, ptr, ptr }
%"class.std::set.6" = type { %"class.std::_Rb_tree.7" }
%"class.std::_Rb_tree.7" = type { %"struct.std::_Rb_tree<int, int, std::_Identity<int>, std::less<int>>::_Rb_tree_impl" }
%"struct.std::_Rb_tree<int, int, std::_Identity<int>, std::less<int>>::_Rb_tree_impl" = type { [8 x i8], %"struct.std::_Rb_tree_header" }
%"class.std::vector.17" = type { %"struct.std::_Vector_base.18" }
%"struct.std::_Vector_base.18" = type { %"struct.std::_Vector_base<unsigned char, std::allocator<unsigned char>>::_Vector_impl" }
%"struct.std::_Vector_base<unsigned char, std::allocator<unsigned char>>::_Vector_impl" = type { %"struct.std::_Vector_base<unsigned char, std::allocator<unsigned char>>::_Vector_impl_data" }
%"struct.std::_Vector_base<unsigned char, std::allocator<unsigned char>>::_Vector_impl_data" = type { ptr, ptr, ptr }
%"class.std::map" = type { %"class.std::_Rb_tree.12" }
%"class.std::_Rb_tree.12" = type { %"struct.std::_Rb_tree<std::__cxx11::basic_string<char>, std::pair<const std::__cxx11::basic_string<char>, std::__cxx11::basic_string<char>>, std::_Select1st<std::pair<const std::__cxx11::basic_string<char>, std::__cxx11::basic_string<char>>>, std::less<std::__cxx11::basic_string<char>>>::_Rb_tree_impl" }
%"struct.std::_Rb_tree<std::__cxx11::basic_string<char>, std::pair<const std::__cxx11::basic_string<char>, std::__cxx11::basic_string<char>>, std::_Select1st<std::pair<const std::__cxx11::basic_string<char>, std::__cxx11::basic_string<char>>>, std::less<std::__cxx11::basic_string<char>>>::_Rb_tree_impl" = type { [8 x i8], %"struct.std::_Rb_tree_header" }
%"struct.zmq::blob_t" = type <{ ptr, i64, i8, [7 x i8] }>

; Function Attrs: mustprogress nounwind uwtable
define noundef i32 @_ZNK3zmq16null_mechanism_t6statusEv(ptr noundef nonnull align 8 dereferenceable(1576) %0) unnamed_addr #3 align 2 {
  %2 = alloca i32, align 4
  %3 = alloca ptr, align 8
  %4 = alloca i8, align 1
  %5 = alloca i8, align 1
  store ptr %0, ptr %3, align 8, !tbaa !3
  %6 = load ptr, ptr %3, align 8
  %7 = getelementptr inbounds nuw %"class.zmq::null_mechanism_t", ptr %6, i32 0, i32 1
  %8 = load i8, ptr %7, align 8, !tbaa !18, !range !35, !noundef !36
  %9 = trunc i8 %8 to i1
  br i1 %9, label %10, label %15

10:                                               ; preds = %1
  %11 = getelementptr inbounds nuw %"class.zmq::null_mechanism_t", ptr %6, i32 0, i32 3
  %12 = load i8, ptr %11, align 2, !tbaa !27, !range !35, !noundef !36
  %13 = trunc i8 %12 to i1
  br i1 %13, label %14, label %15

14:                                               ; preds = %10
  store i32 1, ptr %2, align 4
  br label %44

15:                                               ; preds = %10, %1
  call void @llvm.lifetime.start.p0(i64 1, ptr %4) #17
  %16 = getelementptr inbounds nuw %"class.zmq::null_mechanism_t", ptr %6, i32 0, i32 1
  %17 = load i8, ptr %16, align 8, !tbaa !18, !range !35, !noundef !36
  %18 = trunc i8 %17 to i1
  br i1 %18, label %23, label %19

19:                                               ; preds = %15
  %20 = getelementptr inbounds nuw %"class.zmq::null_mechanism_t", ptr %6, i32 0, i32 2
  %21 = load i8, ptr %20, align 1, !tbaa !26, !range !35, !noundef !36
  %22 = trunc i8 %21 to i1
  br label %23

23:                                               ; preds = %19, %15
  %24 = phi i1 [ true, %15 ], [ %22, %19 ]
  %25 = zext i1 %24 to i8
  store i8 %25, ptr %4, align 1, !tbaa !82
  call void @llvm.lifetime.start.p0(i64 1, ptr %5) #17
  %26 = getelementptr inbounds nuw %"class.zmq::null_mechanism_t", ptr %6, i32 0, i32 3
  %27 = load i8, ptr %26, align 2, !tbaa !27, !range !35, !noundef !36
  %28 = trunc i8 %27 to i1
  br i1 %28, label %33, label %29

29:                                               ; preds = %23
  %30 = getelementptr inbounds nuw %"class.zmq::null_mechanism_t", ptr %6, i32 0, i32 4
  %31 = load i8, ptr %30, align 1, !tbaa !28, !range !35, !noundef !36
  %32 = trunc i8 %31 to i1
  br label %33

33:                                               ; preds = %29, %23
  %34 = phi i1 [ true, %23 ], [ %32, %29 ]
  %35 = zext i1 %34 to i8
  store i8 %35, ptr %5, align 1, !tbaa !82
  %36 = load i8, ptr %4, align 1, !tbaa !82, !range !35, !noundef !36
  %37 = trunc i8 %36 to i1
  br i1 %37, label %38, label %41

38:                                               ; preds = %33
  %39 = load i8, ptr %5, align 1, !tbaa !82, !range !35, !noundef !36
  %40 = trunc i8 %39 to i1
  br label %41

41:                                               ; preds = %38, %33
  %42 = phi i1 [ false, %33 ], [ %40, %38 ]
  %43 = select i1 %42, i32 2, i32 0
  store i32 %43, ptr %2, align 4
  call void @llvm.lifetime.end.p0(i64 1, ptr %5) #17
  call void @llvm.lifetime.end.p0(i64 1, ptr %4) #17
  br label %44

44:                                               ; preds = %41, %14
  %45 = load i32, ptr %2, align 4
  ret i32 %45
}

; Function Attrs: uwtable
define noundef i32 @_ZTv0_n72_NK3zmq16null_mechanism_t6statusEv(ptr noundef %0) unnamed_addr #12 align 2 {
  %2 = alloca ptr, align 8
  store ptr %0, ptr %2, align 8, !tbaa !3
  %3 = load ptr, ptr %2, align 8
  %4 = load ptr, ptr %3, align 8, !tbaa !16
  %5 = getelementptr inbounds i8, ptr %4, i64 -72
  %6 = load i64, ptr %5, align 8
  %7 = getelementptr inbounds i8, ptr %3, i64 %6
  %8 = tail call noundef i32 @_ZNK3zmq16null_mechanism_t6statusEv(ptr noundef nonnull align 8 dereferenceable(1576) %7)
  ret i32 %8
}