; Function Attrs: mustprogress nofree norecurse nosync nounwind willreturn memory(read, inaccessiblemem: none) uwtable
define noundef range(i32 0, 3) i32 @_ZTv0_n72_NK3zmq16null_mechanism_t6statusEv(ptr noundef readonly captures(none) %0) unnamed_addr #11 align 2 {
  %2 = load ptr, ptr %0, align 8, !tbaa !3
  %3 = getelementptr inbounds i8, ptr %2, i64 -72
  %4 = load i64, ptr %3, align 8
  %5 = getelementptr inbounds i8, ptr %0, i64 %4
  %6 = getelementptr inbounds nuw i8, ptr %5, i64 72
  %7 = load i8, ptr %6, align 8, !tbaa !14, !range !18, !noundef !19
  %8 = trunc nuw i8 %7 to i1
  %9 = getelementptr inbounds nuw i8, ptr %5, i64 74
  %10 = load i8, ptr %9, align 2, !tbaa !68, !range !18
  %11 = trunc nuw i8 %10 to i1
  %12 = select i1 %8, i1 %11, i1 false
  br i1 %12, label %_ZNK3zmq16null_mechanism_t6statusEv.exit, label %._crit_edge.i

._crit_edge.i:                                    ; preds = %1
  %.not.i = xor i1 %8, true
  %.mux.i = select i1 %.not.i, i1 %11, i1 false
  %13 = getelementptr inbounds nuw i8, ptr %5, i64 73
  %14 = load i8, ptr %13, align 1, !range !18
  %15 = trunc nuw i8 %14 to i1
  %16 = select i1 %8, i1 true, i1 %15
  %17 = getelementptr inbounds nuw i8, ptr %5, i64 75
  %18 = load i8, ptr %17, align 1, !range !18
  %19 = trunc nuw i8 %18 to i1
  %20 = select i1 %.mux.i, i1 true, i1 %19
  %21 = select i1 %16, i1 %20, i1 false
  %22 = select i1 %21, i32 2, i32 0
  br label %_ZNK3zmq16null_mechanism_t6statusEv.exit

_ZNK3zmq16null_mechanism_t6statusEv.exit:         ; preds = %1, %._crit_edge.i
  %.0.i = phi i32 [ %22, %._crit_edge.i ], [ 1, %1 ]
  ret i32 %.0.i
}